target datalayout = "e-m:e-p270:32:32-p271:32:32-p272:64:64-i64:64-i128:128-f80:128-n8:16:32:64-S128"
target triple = "x86_64-pc-linux-gnu"

%struct.GISTENTRY = type { i64, ptr, ptr, i16, i8 }
%struct.GistEntryVector = type { i32, [0 x %struct.GISTENTRY] }
%struct.GIST_SPLITVEC = type { ptr, i32, i64, i8, ptr, i32, i64, i8 }

; Function Attrs: inlinehint nounwind uwtable
define internal i64 @PointerGetDatum(ptr noundef %0) #2 {
  %2 = alloca ptr, align 8
  store ptr %0, ptr %2, align 8
  %3 = load ptr, ptr %2, align 8
  %4 = ptrtoint ptr %3 to i64
  ret i64 %4
}

; Function Attrs: inlinehint nounwind uwtable
define internal ptr @DatumGetPointer(i64 noundef %0) #2 {
  %2 = alloca i64, align 8
  store i64 %0, ptr %2, align 8
  %3 = load i64, ptr %2, align 8
  %4 = inttoptr i64 %3 to ptr
  ret ptr %4
}

; Function Attrs: inlinehint nounwind uwtable
define internal i64 @RangeTypePGetDatum(ptr noundef %0) #2 {
  %2 = alloca ptr, align 8
  store ptr %0, ptr %2, align 8
  %3 = load ptr, ptr %2, align 8
  %4 = call i64 @PointerGetDatum(ptr noundef %3)
  ret i64 %4
}

; Function Attrs: inlinehint nounwind uwtable
define internal ptr @DatumGetRangeTypeP(i64 noundef %0) #2 {
  %2 = alloca i64, align 8
  store i64 %0, ptr %2, align 8
  %3 = load i64, ptr %2, align 8
  %4 = call ptr @DatumGetPointer(i64 noundef %3)
  %5 = call ptr @pg_detoast_datum(ptr noundef %4)
  ret ptr %5
}

; Function Attrs: nounwind uwtable
define internal void @range_gist_fallback_split(ptr noundef %0, ptr noundef %1, ptr noundef %2) #0 {
  %4 = alloca ptr, align 8
  %5 = alloca ptr, align 8
  %6 = alloca ptr, align 8
  %7 = alloca ptr, align 8
  %8 = alloca ptr, align 8
  %9 = alloca i16, align 2
  %10 = alloca i16, align 2
  %11 = alloca i16, align 2
  %12 = alloca ptr, align 8
  store ptr %0, ptr %4, align 8
  store ptr %1, ptr %5, align 8
  store ptr %2, ptr %6, align 8
  call void @llvm.lifetime.start.p0(i64 8, ptr %7) #8
  store ptr null, ptr %7, align 8
  call void @llvm.lifetime.start.p0(i64 8, ptr %8) #8
  store ptr null, ptr %8, align 8
  call void @llvm.lifetime.start.p0(i64 2, ptr %9) #8
  call void @llvm.lifetime.start.p0(i64 2, ptr %10) #8
  call void @llvm.lifetime.start.p0(i64 2, ptr %11) #8
  %13 = load ptr, ptr %5, align 8
  %14 = getelementptr inbounds nuw %struct.GistEntryVector, ptr %13, i32 0, i32 0
  %15 = load i32, ptr %14, align 8
  %16 = sub i32 %15, 1
  %17 = trunc i32 %16 to i16
  store i16 %17, ptr %10, align 2
  %18 = load i16, ptr %10, align 2
  %19 = zext i16 %18 to i32
  %20 = sub i32 %19, 1
  %21 = sdiv i32 %20, 2
  %22 = add i32 %21, 1
  %23 = trunc i32 %22 to i16
  store i16 %23, ptr %11, align 2
  %24 = load ptr, ptr %6, align 8
  %25 = getelementptr inbounds nuw %struct.GIST_SPLITVEC, ptr %24, i32 0, i32 1
  store i32 0, ptr %25, align 8
  %26 = load ptr, ptr %6, align 8
  %27 = getelementptr inbounds nuw %struct.GIST_SPLITVEC, ptr %26, i32 0, i32 5
  store i32 0, ptr %27, align 8
  store i16 1, ptr %9, align 2
  br label %28

28:                                               ; preds = %101, %3
  %29 = load i16, ptr %9, align 2
  %30 = zext i16 %29 to i32
  %31 = load i16, ptr %10, align 2
  %32 = zext i16 %31 to i32
  %33 = icmp sle i32 %30, %32
  br i1 %33, label %34, label %104

34:                                               ; preds = %28
  call void @llvm.lifetime.start.p0(i64 8, ptr %12) #8
  %35 = load ptr, ptr %5, align 8
  %36 = getelementptr inbounds nuw %struct.GistEntryVector, ptr %35, i32 0, i32 1
  %37 = load i16, ptr %9, align 2
  %38 = zext i16 %37 to i64
  %39 = getelementptr inbounds nuw [0 x %struct.GISTENTRY], ptr %36, i64 0, i64 %38
  %40 = getelementptr inbounds nuw %struct.GISTENTRY, ptr %39, i32 0, i32 0
  %41 = load i64, ptr %40, align 8
  %42 = call ptr @DatumGetRangeTypeP(i64 noundef %41)
  store ptr %42, ptr %12, align 8
  %43 = load i16, ptr %9, align 2
  %44 = zext i16 %43 to i32
  %45 = load i16, ptr %11, align 2
  %46 = zext i16 %45 to i32
  %47 = icmp slt i32 %44, %46
  br i1 %47, label %48, label %74

48:                                               ; preds = %34
  br label %49

49:                                               ; preds = %48
  %50 = load ptr, ptr %6, align 8
  %51 = getelementptr inbounds nuw %struct.GIST_SPLITVEC, ptr %50, i32 0, i32 1
  %52 = load i32, ptr %51, align 8
  %53 = icmp sgt i32 %52, 0
  br i1 %53, label %54, label %59

54:                                               ; preds = %49
  %55 = load ptr, ptr %4, align 8
  %56 = load ptr, ptr %7, align 8
  %57 = load ptr, ptr %12, align 8
  %58 = call ptr @range_super_union(ptr noundef %55, ptr noundef %56, ptr noundef %57)
  store ptr %58, ptr %7, align 8
  br label %61

59:                                               ; preds = %49
  %60 = load ptr, ptr %12, align 8
  store ptr %60, ptr %7, align 8
  br label %61

61:                                               ; preds = %59, %54
  %62 = load i16, ptr %9, align 2
  %63 = load ptr, ptr %6, align 8
  %64 = getelementptr inbounds nuw %struct.GIST_SPLITVEC, ptr %63, i32 0, i32 0
  %65 = load ptr, ptr %64, align 8
  %66 = load ptr, ptr %6, align 8
  %67 = getelementptr inbounds nuw %struct.GIST_SPLITVEC, ptr %66, i32 0, i32 1
  %68 = load i32, ptr %67, align 8
  %69 = add i32 %68, 1
  store i32 %69, ptr %67, align 8
  %70 = sext i32 %68 to i64
  %71 = getelementptr inbounds i16, ptr %65, i64 %70
  store i16 %62, ptr %71, align 2
  br label %72

72:                                               ; preds = %61
  br label %73

73:                                               ; preds = %72
  br label %100

74:                                               ; preds = %34
  br label %75

75:                                               ; preds = %74
  %76 = load ptr, ptr %6, align 8
  %77 = getelementptr inbounds nuw %struct.GIST_SPLITVEC, ptr %76, i32 0, i32 5
  %78 = load i32, ptr %77, align 8
  %79 = icmp sgt i32 %78, 0
  br i1 %79, label %80, label %85

80:                                               ; preds = %75
  %81 = load ptr, ptr %4, align 8
  %82 = load ptr, ptr %8, align 8
  %83 = load ptr, ptr %12, align 8
  %84 = call ptr @range_super_union(ptr noundef %81, ptr noundef %82, ptr noundef %83)
  store ptr %84, ptr %8, align 8
  br label %87

85:                                               ; preds = %75
  %86 = load ptr, ptr %12, align 8
  store ptr %86, ptr %8, align 8
  br label %87

87:                                               ; preds = %85, %80
  %88 = load i16, ptr %9, align 2
  %89 = load ptr, ptr %6, align 8
  %90 = getelementptr inbounds nuw %struct.GIST_SPLITVEC, ptr %89, i32 0, i32 4
  %91 = load ptr, ptr %90, align 8
  %92 = load ptr, ptr %6, align 8
  %93 = getelementptr inbounds nuw %struct.GIST_SPLITVEC, ptr %92, i32 0, i32 5
  %94 = load i32, ptr %93, align 8
  %95 = add i32 %94, 1
  store i32 %95, ptr %93, align 8
  %96 = sext i32 %94 to i64
  %97 = getelementptr inbounds i16, ptr %91, i64 %96
  store i16 %88, ptr %97, align 2
  br label %98

98:                                               ; preds = %87
  br label %99

99:                                               ; preds = %98
  br label %100

100:                                              ; preds = %99, %73
  call void @llvm.lifetime.end.p0(i64 8, ptr %12) #8
  br label %101

101:                                              ; preds = %100
  %102 = load i16, ptr %9, align 2
  %103 = add i16 %102, 1
  store i16 %103, ptr %9, align 2
  br label %28, !llvm.loop !19

104:                                              ; preds = %28
  %105 = load ptr, ptr %7, align 8
  %106 = call i64 @RangeTypePGetDatum(ptr noundef %105)
  %107 = load ptr, ptr %6, align 8
  %108 = getelementptr inbounds nuw %struct.GIST_SPLITVEC, ptr %107, i32 0, i32 2
  store i64 %106, ptr %108, align 8
  %109 = load ptr, ptr %8, align 8
  %110 = call i64 @RangeTypePGetDatum(ptr noundef %109)
  %111 = load ptr, ptr %6, align 8
  %112 = getelementptr inbounds nuw %struct.GIST_SPLITVEC, ptr %111, i32 0, i32 6
  store i64 %110, ptr %112, align 8
  call void @llvm.lifetime.end.p0(i64 2, ptr %11) #8
  call void @llvm.lifetime.end.p0(i64 2, ptr %10) #8
  call void @llvm.lifetime.end.p0(i64 2, ptr %9) #8
  call void @llvm.lifetime.end.p0(i64 8, ptr %8) #8
  call void @llvm.lifetime.end.p0(i64 8, ptr %7) #8
  ret void
}