; Function Attrs: nounwind uwtable
define internal fastcc void @range_gist_fallback_split(ptr noundef %0, ptr noundef readonly captures(none) %1, ptr noundef captures(none) initializes((8, 12), (40, 44)) %2) unnamed_addr #0 {
  %4 = load i32, ptr %1, align 8
  %5 = getelementptr inbounds nuw i8, ptr %2, i64 8
  store i32 0, ptr %5, align 8
  %6 = getelementptr inbounds nuw i8, ptr %2, i64 40
  store i32 0, ptr %6, align 8
  %7 = and i32 %4, 65535
  %.not35 = icmp eq i32 %7, 1
  br i1 %.not35, label %._crit_edge, label %.lr.ph

.lr.ph:                                           ; preds = %3
  %8 = add i32 %4, 65535
  %9 = and i32 %8, 65535
  %10 = add nsw i32 %9, -1
  %11 = sdiv i32 %10, 2
  %12 = getelementptr inbounds nuw i8, ptr %1, i64 8
  %13 = getelementptr inbounds nuw i8, ptr %2, i64 32
  %14 = trunc i32 %8 to i16
  br label %15

15:                                               ; preds = %.lr.ph, %40
  %16 = phi i32 [ 1, %.lr.ph ], [ %44, %40 ]
  %.038 = phi ptr [ null, %.lr.ph ], [ %.2, %40 ]
  %.03037 = phi ptr [ null, %.lr.ph ], [ %.131, %40 ]
  %.03336 = phi i16 [ 1, %.lr.ph ], [ %43, %40 ]
  %17 = zext i16 %.03336 to i64
  %18 = getelementptr inbounds nuw [0 x %struct.GISTENTRY], ptr %12, i64 0, i64 %17
  %19 = load i64, ptr %18, align 8
  %20 = inttoptr i64 %19 to ptr
  %21 = tail call ptr @pg_detoast_datum(ptr noundef %20) #10
  %.not43 = icmp ult i32 %11, %16
  br i1 %.not43, label %31, label %22

22:                                               ; preds = %15
  %23 = load i32, ptr %5, align 8
  %24 = icmp sgt i32 %23, 0
  br i1 %24, label %25, label %27

25:                                               ; preds = %22
  %26 = tail call fastcc ptr @range_super_union(ptr noundef %0, ptr noundef %.038, ptr noundef %21)
  %.pre40 = load i32, ptr %5, align 8
  br label %27

27:                                               ; preds = %22, %25
  %28 = phi i32 [ %.pre40, %25 ], [ %23, %22 ]
  %.1 = phi ptr [ %26, %25 ], [ %21, %22 ]
  %29 = load ptr, ptr %2, align 8
  %30 = add i32 %28, 1
  store i32 %30, ptr %5, align 8
  br label %40

31:                                               ; preds = %15
  %32 = load i32, ptr %6, align 8
  %33 = icmp sgt i32 %32, 0
  br i1 %33, label %34, label %36

34:                                               ; preds = %31
  %35 = tail call fastcc ptr @range_super_union(ptr noundef %0, ptr noundef %.03037, ptr noundef %21)
  %.pre = load i32, ptr %6, align 8
  br label %36

36:                                               ; preds = %31, %34
  %37 = phi i32 [ %.pre, %34 ], [ %32, %31 ]
  %.232 = phi ptr [ %35, %34 ], [ %21, %31 ]
  %38 = load ptr, ptr %13, align 8
  %39 = add i32 %37, 1
  store i32 %39, ptr %6, align 8
  br label %40

40:                                               ; preds = %36, %27
  %.sink = phi i32 [ %37, %36 ], [ %28, %27 ]
  %.sink41 = phi ptr [ %38, %36 ], [ %29, %27 ]
  %.131 = phi ptr [ %.232, %36 ], [ %.03037, %27 ]
  %.2 = phi ptr [ %.038, %36 ], [ %.1, %27 ]
  %41 = sext i32 %.sink to i64
  %42 = getelementptr inbounds i16, ptr %.sink41, i64 %41
  store i16 %.03336, ptr %42, align 2
  %43 = add i16 %.03336, 1
  %44 = zext i16 %43 to i32
  %.not = icmp ugt i16 %43, %14
  br i1 %.not, label %._crit_edge.loopexit, label %15, !llvm.loop !20

._crit_edge.loopexit:                             ; preds = %40
  %45 = ptrtoint ptr %.2 to i64
  %46 = ptrtoint ptr %.131 to i64
  br label %._crit_edge

._crit_edge:                                      ; preds = %._crit_edge.loopexit, %3
  %.030.lcssa = phi i64 [ 0, %3 ], [ %46, %._crit_edge.loopexit ]
  %.0.lcssa = phi i64 [ 0, %3 ], [ %45, %._crit_edge.loopexit ]
  %47 = getelementptr inbounds nuw i8, ptr %2, i64 16
  store i64 %.0.lcssa, ptr %47, align 8
  %48 = getelementptr inbounds nuw i8, ptr %2, i64 48
  store i64 %.030.lcssa, ptr %48, align 8
  ret void
}